; Function Attrs: mustprogress nounwind uwtable
define dso_local noundef nonnull align 8 dereferenceable(409192) ptr @_ZN4llvm14RISCVSubtarget31initializeSubtargetDependenciesERKNS_6TripleENS_9StringRefES4_S4_S4_(ptr noundef nonnull returned align 8 dereferenceable(409192) initializes((576, 584)) %0, ptr noundef nonnull align 8 dereferenceable(56) %1, ptr %2, i64 %3, ptr %4, i64 %5, ptr noundef readonly byval(%"class.llvm::StringRef") align 8 captures(none) %6, ptr noundef readonly byval(%"class.llvm::StringRef") align 8 captures(none) %7) local_unnamed_addr #0 align 2 {
  %9 = tail call noundef zeroext i1 @_ZNK4llvm6Triple11isArch64BitEv(ptr noundef nonnull align 8 dereferenceable(56) %1) #21
  switch i64 %3, label %_ZN4llvmeqENS_9StringRefES0_.exit.thread [
    i64 0, label %11
    i64 7, label %_ZN4llvmeqENS_9StringRefES0_.exit
  ]

_ZN4llvmeqENS_9StringRefES0_.exit:                ; preds = %8
  %bcmp.i = tail call i32 @bcmp(ptr noundef nonnull dereferenceable(7) %2, ptr noundef nonnull dereferenceable(7) @.str.19, i64 7)
  %10 = icmp eq i32 %bcmp.i, 0
  br i1 %10, label %11, label %_ZN4llvmeqENS_9StringRefES0_.exit.thread

11:                                               ; preds = %8, %_ZN4llvmeqENS_9StringRefES0_.exit
  %.str.20..str.21 = select i1 %9, ptr @.str.20, ptr @.str.21
  br label %_ZN4llvmeqENS_9StringRefES0_.exit.thread

_ZN4llvmeqENS_9StringRefES0_.exit.thread:         ; preds = %8, %11, %_ZN4llvmeqENS_9StringRefES0_.exit
  %.sroa.020.0 = phi ptr [ %.str.20..str.21, %11 ], [ %2, %_ZN4llvmeqENS_9StringRefES0_.exit ], [ %2, %8 ]
  %.sroa.5.0 = phi i64 [ 12, %11 ], [ 7, %_ZN4llvmeqENS_9StringRefES0_.exit ], [ %3, %8 ]
  %12 = icmp eq i64 %5, 0
  %spec.select = select i1 %12, ptr %.sroa.020.0, ptr %4
  %spec.select25 = select i1 %12, i64 %.sroa.5.0, i64 %5
  %13 = tail call noundef ptr @_ZN4llvm18RISCVTuneInfoTable16getRISCVTuneInfoENS_9StringRefE(ptr %spec.select, i64 %spec.select25)
  %14 = getelementptr inbounds nuw i8, ptr %0, i64 576
  store ptr %13, ptr %14, align 8
  %.not = icmp eq ptr %13, null
  br i1 %.not, label %15, label %17

15:                                               ; preds = %_ZN4llvmeqENS_9StringRefES0_.exit.thread
  %16 = tail call noundef ptr @_ZN4llvm18RISCVTuneInfoTable16getRISCVTuneInfoENS_9StringRefE(ptr nonnull @.str.19, i64 7)
  store ptr %16, ptr %14, align 8
  br label %17

17:                                               ; preds = %15, %_ZN4llvmeqENS_9StringRefES0_.exit.thread
  tail call void @_ZN4llvm14RISCVSubtarget22ParseSubtargetFeaturesENS_9StringRefES1_S1_(ptr noundef nonnull align 8 dereferenceable(409192) %0, ptr %.sroa.020.0, i64 %.sroa.5.0, ptr %spec.select, i64 %spec.select25, ptr noundef nonnull byval(%"class.llvm::StringRef") align 8 %6)
  %18 = getelementptr inbounds nuw i8, ptr %0, i64 216
  %.sroa.0.0.copyload = load ptr, ptr %7, align 8
  %.sroa.2.0..sroa_idx = getelementptr inbounds nuw i8, ptr %7, i64 8
  %.sroa.2.0.copyload = load i64, ptr %.sroa.2.0..sroa_idx, align 8
  %19 = tail call noundef i32 @_ZN4llvm8RISCVABI16computeTargetABIERKNS_6TripleERKNS_13FeatureBitsetENS_9StringRefE(ptr noundef nonnull align 8 dereferenceable(56) %1, ptr noundef nonnull align 8 dereferenceable(40) %18, ptr %.sroa.0.0.copyload, i64 %.sroa.2.0.copyload) #21
  %20 = getelementptr inbounds nuw i8, ptr %0, i64 508
  store i32 %19, ptr %20, align 4
  tail call void @_ZN4llvm13RISCVFeatures8validateERKNS_6TripleERKNS_13FeatureBitsetE(ptr noundef nonnull align 8 dereferenceable(56) %1, ptr noundef nonnull align 8 dereferenceable(40) %18) #21
  ret ptr %0
}